(lp0
cPyMBVCore
Matrix4x4
p1
(tRp2
S'22 serialization::archive 11 0 0 0 0 1.00000000e+00 -0.00000000e+00 0.00000000e+00 -0.00000000e+00 -0.00000000e+00 1.00000000e+00 -0.00000000e+00 0.00000000e+00 0.00000000e+00 -0.00000000e+00 1.00000000e+00 -0.00000000e+00 -0.00000000e+00 0.00000000e+00 -0.00000000e+00 1.00000000e+00'
p3
bag1
(tRp4
S'22 serialization::archive 11 0 0 0 0 1.66100693e+00 0.00000000e+00 0.00000000e+00 0.00000000e+00 0.00000000e+00 -2.21467590e+00 0.00000000e+00 0.00000000e+00 0.00000000e+00 -0.00000000e+00 1.00000000e+00 9.23076928e-01 0.00000000e+00 0.00000000e+00 -7.69230774e+02 0.00000000e+00'
p5
ba.